; Function Attrs: nounwind sspstrong uwtable
define internal i64 @rb_f_hash(i64 %0, i64 noundef %1) #2 {
  %3 = icmp eq i64 %1, 4
  br i1 %3, label %.sink.split.i, label %4

4:                                                ; preds = %2
  %5 = tail call i64 @rb_check_hash_type(i64 noundef %1) #23
  %6 = icmp eq i64 %5, 4
  br i1 %6, label %7, label %rb_Hash.exit

7:                                                ; preds = %4
  %8 = icmp eq i64 %1, 0
  %9 = and i64 %1, 7
  %10 = icmp ne i64 %9, 0
  %11 = or i1 %8, %10
  br i1 %11, label %rbimpl_RB_TYPE_P_fastpath.exit.thread.i, label %rbimpl_RB_TYPE_P_fastpath.exit.i

rbimpl_RB_TYPE_P_fastpath.exit.i:                 ; preds = %7
  %12 = inttoptr i64 %1 to ptr
  %13 = load i64, ptr %12, align 8, !tbaa !24
  %14 = and i64 %13, 31
  %15 = icmp eq i64 %14, 7
  br i1 %15, label %16, label %rbimpl_RB_TYPE_P_fastpath.exit.thread.i

16:                                               ; preds = %rbimpl_RB_TYPE_P_fastpath.exit.i
  %17 = and i64 %13, 8192
  %.not.i.i = icmp eq i64 %17, 0
  br i1 %.not.i.i, label %21, label %18

18:                                               ; preds = %16
  %19 = lshr i64 %13, 15
  %20 = and i64 %19, 127
  br label %rb_array_len.exit.i

21:                                               ; preds = %16
  %22 = getelementptr inbounds nuw i8, ptr %12, i64 16
  %23 = load i64, ptr %22, align 8, !tbaa !28
  br label %rb_array_len.exit.i

rb_array_len.exit.i:                              ; preds = %21, %18
  %.0.i8.i = phi i64 [ %20, %18 ], [ %23, %21 ]
  %24 = icmp eq i64 %.0.i8.i, 0
  br i1 %24, label %.sink.split.i, label %rbimpl_RB_TYPE_P_fastpath.exit.thread.i

rbimpl_RB_TYPE_P_fastpath.exit.thread.i:          ; preds = %rb_array_len.exit.i, %rbimpl_RB_TYPE_P_fastpath.exit.i, %7
  %25 = load i64, ptr @rb_eTypeError, align 8, !tbaa !7
  %26 = tail call ptr @rb_obj_classname(i64 noundef %1) #23
  tail call void (i64, ptr, ...) @rb_raise(i64 noundef %25, ptr noundef nonnull @.str.23, ptr noundef %26) #24
  unreachable

.sink.split.i:                                    ; preds = %rb_array_len.exit.i, %2
  %27 = tail call i64 @rb_hash_new() #23
  br label %rb_Hash.exit

rb_Hash.exit:                                     ; preds = %4, %.sink.split.i
  %.0.i = phi i64 [ %5, %4 ], [ %27, %.sink.split.i ]
  ret i64 %.0.i
}